target datalayout = "e-m:e-p270:32:32-p271:32:32-p272:64:64-i64:64-i128:128-f80:128-n8:16:32:64-S128"
target triple = "x86_64-pc-linux-gnu"

@hf_zbee_zdp_nwk_addr = external global i32, align 4
@.str.1 = private unnamed_addr constant [19 x i8] c", Nwk Addr: 0x%04x\00", align 1
@hf_zbee_zdp_endpoint = external global i32, align 4
@.str.13 = private unnamed_addr constant [13 x i8] c", Status: %s\00", align 1
@ett_zbee_zdp_endpoint = external global i32, align 4
@hf_zbee_zdp_ep_count = external global i32, align 4
@.str.21 = private unnamed_addr constant [21 x i8] c"Active Endpoint List\00", align 1

; Function Attrs: nounwind uwtable
define hidden void @dissect_zbee_zdp_rsp_active_ep(ptr noundef %0, ptr noundef %1, ptr noundef %2) #0 {
  %4 = alloca ptr, align 8
  %5 = alloca ptr, align 8
  %6 = alloca ptr, align 8
  %7 = alloca ptr, align 8
  %8 = alloca i32, align 4
  %9 = alloca i32, align 4
  %10 = alloca i8, align 1
  %11 = alloca i32, align 4
  %12 = alloca i32, align 4
  store ptr %0, ptr %4, align 8
  store ptr %1, ptr %5, align 8
  store ptr %2, ptr %6, align 8
  store ptr null, ptr %7, align 8
  store i32 0, ptr %8, align 4
  %13 = load ptr, ptr %6, align 8
  %14 = load ptr, ptr %4, align 8
  %15 = call zeroext i8 @zdp_parse_status(ptr noundef %13, ptr noundef %14, ptr noundef %8)
  store i8 %15, ptr %10, align 1
  %16 = load ptr, ptr %6, align 8
  %17 = load i32, ptr @hf_zbee_zdp_nwk_addr, align 4
  %18 = load ptr, ptr %4, align 8
  %19 = load i32, ptr %8, align 4
  %20 = call ptr @proto_tree_add_item_ret_uint(ptr noundef %16, i32 noundef %17, ptr noundef %18, i32 noundef %19, i32 noundef 2, i32 noundef -2147483648, ptr noundef %11)
  %21 = load i32, ptr %8, align 4
  %22 = add i32 %21, 2
  store i32 %22, ptr %8, align 4
  %23 = load ptr, ptr %6, align 8
  %24 = load i32, ptr @hf_zbee_zdp_ep_count, align 4
  %25 = load ptr, ptr %4, align 8
  %26 = load i32, ptr %8, align 4
  %27 = call ptr @proto_tree_add_item_ret_uint(ptr noundef %23, i32 noundef %24, ptr noundef %25, i32 noundef %26, i32 noundef 1, i32 noundef -2147483648, ptr noundef %12)
  %28 = load i32, ptr %8, align 4
  %29 = add i32 %28, 1
  store i32 %29, ptr %8, align 4
  %30 = load ptr, ptr %6, align 8
  %31 = icmp ne ptr %30, null
  br i1 %31, label %32, label %43

32:                                               ; preds = %3
  %33 = load i32, ptr %12, align 4
  %34 = icmp ne i32 %33, 0
  br i1 %34, label %35, label %43

35:                                               ; preds = %32
  %36 = load ptr, ptr %6, align 8
  %37 = load ptr, ptr %4, align 8
  %38 = load i32, ptr %8, align 4
  %39 = load i32, ptr %12, align 4
  %40 = mul i32 %39, 1
  %41 = load i32, ptr @ett_zbee_zdp_endpoint, align 4
  %42 = call ptr @proto_tree_add_subtree(ptr noundef %36, ptr noundef %37, i32 noundef %38, i32 noundef %40, i32 noundef %41, ptr noundef null, ptr noundef @.str.21)
  store ptr %42, ptr %7, align 8
  br label %43

43:                                               ; preds = %35, %32, %3
  store i32 0, ptr %9, align 4
  br label %44

44:                                               ; preds = %56, %43
  %45 = load i32, ptr %9, align 4
  %46 = load i32, ptr %12, align 4
  %47 = icmp ult i32 %45, %46
  br i1 %47, label %48, label %59

48:                                               ; preds = %44
  %49 = load ptr, ptr %7, align 8
  %50 = load i32, ptr @hf_zbee_zdp_endpoint, align 4
  %51 = load ptr, ptr %4, align 8
  %52 = load i32, ptr %8, align 4
  %53 = call ptr @proto_tree_add_item(ptr noundef %49, i32 noundef %50, ptr noundef %51, i32 noundef %52, i32 noundef 1, i32 noundef -2147483648)
  %54 = load i32, ptr %8, align 4
  %55 = add i32 %54, 1
  store i32 %55, ptr %8, align 4
  br label %56

56:                                               ; preds = %48
  %57 = load i32, ptr %9, align 4
  %58 = add i32 %57, 1
  store i32 %58, ptr %9, align 4
  br label %44, !llvm.loop !13

59:                                               ; preds = %44
  %60 = load ptr, ptr %6, align 8
  %61 = load ptr, ptr %5, align 8
  %62 = load i32, ptr %11, align 4
  call void (ptr, ptr, ptr, ...) @zbee_append_info(ptr noundef %60, ptr noundef %61, ptr noundef @.str.1, i32 noundef %62)
  %63 = load ptr, ptr %6, align 8
  %64 = load ptr, ptr %5, align 8
  %65 = load i8, ptr %10, align 1
  %66 = call ptr @zdp_status_name(i8 noundef zeroext %65)
  call void (ptr, ptr, ptr, ...) @zbee_append_info(ptr noundef %63, ptr noundef %64, ptr noundef @.str.13, ptr noundef %66)
  %67 = load ptr, ptr %4, align 8
  %68 = load i32, ptr %8, align 4
  %69 = load ptr, ptr %5, align 8
  %70 = load ptr, ptr %6, align 8
  call void @zdp_dump_excess(ptr noundef %67, i32 noundef %68, ptr noundef %69, ptr noundef %70)
  ret void
}