; Function Attrs: nounwind uwtable
define hidden void @dissect_zbee_zdp_rsp_active_ep(ptr noundef %0, ptr noundef %1, ptr noundef %2) local_unnamed_addr #0 {
  %4 = alloca i32, align 4
  %5 = alloca i32, align 4
  %6 = alloca i32, align 4
  store i32 0, ptr %4, align 4
  %7 = call zeroext i8 @zdp_parse_status(ptr noundef %2, ptr noundef %0, ptr noundef nonnull %4) #2
  %8 = load i32, ptr @hf_zbee_zdp_nwk_addr, align 4
  %9 = load i32, ptr %4, align 4
  %10 = call ptr @proto_tree_add_item_ret_uint(ptr noundef %2, i32 noundef %8, ptr noundef %0, i32 noundef %9, i32 noundef 2, i32 noundef -2147483648, ptr noundef nonnull %5) #2
  %11 = load i32, ptr %4, align 4
  %12 = add i32 %11, 2
  store i32 %12, ptr %4, align 4
  %13 = load i32, ptr @hf_zbee_zdp_ep_count, align 4
  %14 = call ptr @proto_tree_add_item_ret_uint(ptr noundef %2, i32 noundef %13, ptr noundef %0, i32 noundef %12, i32 noundef 1, i32 noundef -2147483648, ptr noundef nonnull %6) #2
  %15 = load i32, ptr %4, align 4
  %16 = add i32 %15, 1
  store i32 %16, ptr %4, align 4
  %17 = icmp ne ptr %2, null
  %18 = load i32, ptr %6, align 4
  %19 = icmp ne i32 %18, 0
  %or.cond = select i1 %17, i1 %19, i1 false
  br i1 %or.cond, label %20, label %23

20:                                               ; preds = %3
  %21 = load i32, ptr @ett_zbee_zdp_endpoint, align 4
  %22 = call ptr @proto_tree_add_subtree(ptr noundef nonnull %2, ptr noundef %0, i32 noundef %16, i32 noundef %18, i32 noundef %21, ptr noundef null, ptr noundef nonnull @.str.21) #2
  %.pre = load i32, ptr %6, align 4
  br label %23

23:                                               ; preds = %20, %3
  %24 = phi i32 [ %.pre, %20 ], [ %18, %3 ]
  %.0 = phi ptr [ %22, %20 ], [ null, %3 ]
  %.not = icmp eq i32 %24, 0
  br i1 %.not, label %._crit_edge, label %.lr.ph.preheader

.lr.ph.preheader:                                 ; preds = %23
  %.pre25 = load i32, ptr %4, align 4
  br label %.lr.ph

.lr.ph:                                           ; preds = %.lr.ph.preheader, %.lr.ph
  %25 = phi i32 [ %29, %.lr.ph ], [ %.pre25, %.lr.ph.preheader ]
  %.02124 = phi i32 [ %30, %.lr.ph ], [ 0, %.lr.ph.preheader ]
  %26 = load i32, ptr @hf_zbee_zdp_endpoint, align 4
  %27 = call ptr @proto_tree_add_item(ptr noundef %.0, i32 noundef %26, ptr noundef %0, i32 noundef %25, i32 noundef 1, i32 noundef -2147483648) #2
  %28 = load i32, ptr %4, align 4
  %29 = add i32 %28, 1
  store i32 %29, ptr %4, align 4
  %30 = add nuw i32 %.02124, 1
  %31 = load i32, ptr %6, align 4
  %32 = icmp ult i32 %30, %31
  br i1 %32, label %.lr.ph, label %._crit_edge, !llvm.loop !13

._crit_edge:                                      ; preds = %.lr.ph, %23
  %33 = load i32, ptr %5, align 4
  call void (ptr, ptr, ptr, ...) @zbee_append_info(ptr noundef %2, ptr noundef %1, ptr noundef nonnull @.str.1, i32 noundef %33) #2
  %34 = call ptr @zdp_status_name(i8 noundef zeroext %7) #2
  call void (ptr, ptr, ptr, ...) @zbee_append_info(ptr noundef %2, ptr noundef %1, ptr noundef nonnull @.str.13, ptr noundef %34) #2
  %35 = load i32, ptr %4, align 4
  call void @zdp_dump_excess(ptr noundef %0, i32 noundef %35, ptr noundef %1, ptr noundef %2) #2
  ret void
}